target datalayout = "e-m:e-p270:32:32-p271:32:32-p272:64:64-i64:64-i128:128-f80:128-n8:16:32:64-S128"
target triple = "x86_64-pc-linux-gnu"

%struct.ref_dir = type { i32, i32, i32, ptr, ptr }
%struct.string_slice = type { i64, ptr }

; Function Attrs: inlinehint nounwind uwtable
define available_externally ptr @bsearch(ptr noundef nonnull %0, ptr noundef nonnull %1, i64 noundef %2, i64 noundef %3, ptr noundef nonnull %4) #2 {
  %6 = alloca ptr, align 8
  %7 = alloca ptr, align 8
  %8 = alloca ptr, align 8
  %9 = alloca i64, align 8
  %10 = alloca i64, align 8
  %11 = alloca ptr, align 8
  %12 = alloca i64, align 8
  %13 = alloca i64, align 8
  %14 = alloca i64, align 8
  %15 = alloca ptr, align 8
  %16 = alloca i32, align 4
  %17 = alloca i32, align 4
  store ptr %0, ptr %7, align 8, !tbaa !35
  store ptr %1, ptr %8, align 8, !tbaa !35
  store i64 %2, ptr %9, align 8, !tbaa !19
  store i64 %3, ptr %10, align 8, !tbaa !19
  store ptr %4, ptr %11, align 8, !tbaa !35
  call void @llvm.lifetime.start.p0(i64 8, ptr %12) #10
  call void @llvm.lifetime.start.p0(i64 8, ptr %13) #10
  call void @llvm.lifetime.start.p0(i64 8, ptr %14) #10
  call void @llvm.lifetime.start.p0(i64 8, ptr %15) #10
  call void @llvm.lifetime.start.p0(i64 4, ptr %16) #10
  store i64 0, ptr %12, align 8, !tbaa !19
  %18 = load i64, ptr %9, align 8, !tbaa !19
  store i64 %18, ptr %13, align 8, !tbaa !19
  br label %19

19:                                               ; preds = %50, %5
  %20 = load i64, ptr %12, align 8, !tbaa !19
  %21 = load i64, ptr %13, align 8, !tbaa !19
  %22 = icmp ult i64 %20, %21
  br i1 %22, label %23, label %51

23:                                               ; preds = %19
  %24 = load i64, ptr %12, align 8, !tbaa !19
  %25 = load i64, ptr %13, align 8, !tbaa !19
  %26 = add i64 %24, %25
  %27 = udiv i64 %26, 2
  store i64 %27, ptr %14, align 8, !tbaa !19
  %28 = load ptr, ptr %8, align 8, !tbaa !35
  %29 = load i64, ptr %14, align 8, !tbaa !19
  %30 = load i64, ptr %10, align 8, !tbaa !19
  %31 = mul i64 %29, %30
  %32 = getelementptr inbounds nuw i8, ptr %28, i64 %31
  store ptr %32, ptr %15, align 8, !tbaa !35
  %33 = load ptr, ptr %11, align 8, !tbaa !35
  %34 = load ptr, ptr %7, align 8, !tbaa !35
  %35 = load ptr, ptr %15, align 8, !tbaa !35
  %36 = call i32 %33(ptr noundef %34, ptr noundef %35)
  store i32 %36, ptr %16, align 4, !tbaa !31
  %37 = load i32, ptr %16, align 4, !tbaa !31
  %38 = icmp slt i32 %37, 0
  br i1 %38, label %39, label %41

39:                                               ; preds = %23
  %40 = load i64, ptr %14, align 8, !tbaa !19
  store i64 %40, ptr %13, align 8, !tbaa !19
  br label %50

41:                                               ; preds = %23
  %42 = load i32, ptr %16, align 4, !tbaa !31
  %43 = icmp sgt i32 %42, 0
  br i1 %43, label %44, label %47

44:                                               ; preds = %41
  %45 = load i64, ptr %14, align 8, !tbaa !19
  %46 = add i64 %45, 1
  store i64 %46, ptr %12, align 8, !tbaa !19
  br label %49

47:                                               ; preds = %41
  %48 = load ptr, ptr %15, align 8, !tbaa !35
  store ptr %48, ptr %6, align 8
  store i32 1, ptr %17, align 4
  br label %52

49:                                               ; preds = %44
  br label %50

50:                                               ; preds = %49, %39
  br label %19, !llvm.loop !44

51:                                               ; preds = %19
  store ptr null, ptr %6, align 8
  store i32 1, ptr %17, align 4
  br label %52

52:                                               ; preds = %51, %47
  call void @llvm.lifetime.end.p0(i64 4, ptr %16) #10
  call void @llvm.lifetime.end.p0(i64 8, ptr %15) #10
  call void @llvm.lifetime.end.p0(i64 8, ptr %14) #10
  call void @llvm.lifetime.end.p0(i64 8, ptr %13) #10
  call void @llvm.lifetime.end.p0(i64 8, ptr %12) #10
  %53 = load ptr, ptr %6, align 8
  ret ptr %53
}

; Function Attrs: nounwind uwtable
define dso_local i32 @search_ref_dir(ptr noundef %0, ptr noundef %1, i64 noundef %2) #0 {
  %4 = alloca i32, align 4
  %5 = alloca ptr, align 8
  %6 = alloca ptr, align 8
  %7 = alloca i64, align 8
  %8 = alloca ptr, align 8
  %9 = alloca %struct.string_slice, align 8
  %10 = alloca i32, align 4
  store ptr %0, ptr %5, align 8, !tbaa !4
  store ptr %1, ptr %6, align 8, !tbaa !27
  store i64 %2, ptr %7, align 8, !tbaa !19
  call void @llvm.lifetime.start.p0(i64 8, ptr %8) #10
  call void @llvm.lifetime.start.p0(i64 16, ptr %9) #10
  %11 = load ptr, ptr %6, align 8, !tbaa !27
  %12 = icmp eq ptr %11, null
  br i1 %12, label %18, label %13

13:                                               ; preds = %3
  %14 = load ptr, ptr %5, align 8, !tbaa !4
  %15 = getelementptr inbounds nuw %struct.ref_dir, ptr %14, i32 0, i32 0
  %16 = load i32, ptr %15, align 8, !tbaa !11
  %17 = icmp ne i32 %16, 0
  br i1 %17, label %19, label %18

18:                                               ; preds = %13, %3
  store i32 -1, ptr %4, align 4
  store i32 1, ptr %10, align 4
  br label %46

19:                                               ; preds = %13
  %20 = load ptr, ptr %5, align 8, !tbaa !4
  call void @sort_ref_dir(ptr noundef %20)
  %21 = load i64, ptr %7, align 8, !tbaa !19
  %22 = getelementptr inbounds nuw %struct.string_slice, ptr %9, i32 0, i32 0
  store i64 %21, ptr %22, align 8, !tbaa !38
  %23 = load ptr, ptr %6, align 8, !tbaa !27
  %24 = getelementptr inbounds nuw %struct.string_slice, ptr %9, i32 0, i32 1
  store ptr %23, ptr %24, align 8, !tbaa !40
  %25 = load ptr, ptr %5, align 8, !tbaa !4
  %26 = getelementptr inbounds nuw %struct.ref_dir, ptr %25, i32 0, i32 4
  %27 = load ptr, ptr %26, align 8, !tbaa !17
  %28 = load ptr, ptr %5, align 8, !tbaa !4
  %29 = getelementptr inbounds nuw %struct.ref_dir, ptr %28, i32 0, i32 0
  %30 = load i32, ptr %29, align 8, !tbaa !11
  %31 = sext i32 %30 to i64
  %32 = call ptr @bsearch(ptr noundef %9, ptr noundef %27, i64 noundef %31, i64 noundef 8, ptr noundef @ref_entry_cmp_sslice)
  store ptr %32, ptr %8, align 8, !tbaa !41
  %33 = load ptr, ptr %8, align 8, !tbaa !41
  %34 = icmp ne ptr %33, null
  br i1 %34, label %36, label %35

35:                                               ; preds = %19
  store i32 -1, ptr %4, align 4
  store i32 1, ptr %10, align 4
  br label %46

36:                                               ; preds = %19
  %37 = load ptr, ptr %8, align 8, !tbaa !41
  %38 = load ptr, ptr %5, align 8, !tbaa !4
  %39 = getelementptr inbounds nuw %struct.ref_dir, ptr %38, i32 0, i32 4
  %40 = load ptr, ptr %39, align 8, !tbaa !17
  %41 = ptrtoint ptr %37 to i64
  %42 = ptrtoint ptr %40 to i64
  %43 = sub i64 %41, %42
  %44 = sdiv exact i64 %43, 8
  %45 = trunc i64 %44 to i32
  store i32 %45, ptr %4, align 4
  store i32 1, ptr %10, align 4
  br label %46

46:                                               ; preds = %36, %35, %18
  call void @llvm.lifetime.end.p0(i64 16, ptr %9) #10
  call void @llvm.lifetime.end.p0(i64 8, ptr %8) #10
  %47 = load i32, ptr %4, align 4
  ret i32 %47
}