; Function Attrs: nounwind uwtable
define dso_local i32 @search_ref_dir(ptr noundef captures(none) %0, ptr noundef readonly %1, i64 noundef %2) local_unnamed_addr #0 {
  %4 = icmp eq ptr %1, null
  br i1 %4, label %bsearch.exit.thread, label %5

5:                                                ; preds = %3
  %6 = load i32, ptr %0, align 8, !tbaa !4
  %.not = icmp eq i32 %6, 0
  br i1 %.not, label %bsearch.exit.thread, label %7

7:                                                ; preds = %5
  tail call fastcc void @sort_ref_dir(ptr noundef nonnull %0)
  %8 = getelementptr inbounds nuw i8, ptr %0, i64 24
  %9 = load ptr, ptr %8, align 8, !tbaa !13
  %10 = load i32, ptr %0, align 8, !tbaa !4
  %.not24.i = icmp eq i32 %10, 0
  br i1 %.not24.i, label %bsearch.exit.thread, label %.lr.ph.i.preheader

.lr.ph.i.preheader:                               ; preds = %7
  %11 = sext i32 %10 to i64
  br label %.lr.ph.i

.lr.ph.i:                                         ; preds = %.lr.ph.i.preheader, %28
  %.01621.i = phi i64 [ %.1.i, %28 ], [ 0, %.lr.ph.i.preheader ]
  %.01720.i = phi i64 [ %.118.i, %28 ], [ %11, %.lr.ph.i.preheader ]
  %12 = add i64 %.01720.i, %.01621.i
  %13 = lshr i64 %12, 1
  %14 = shl i64 %13, 3
  %15 = getelementptr inbounds nuw i8, ptr %9, i64 %14
  %16 = load ptr, ptr %15, align 8, !tbaa !14
  %17 = getelementptr inbounds nuw i8, ptr %16, i64 56
  %18 = tail call i32 @strncmp(ptr noundef nonnull %1, ptr noundef nonnull %17, i64 noundef %2) #12
  %.not.i13 = icmp eq i32 %18, 0
  br i1 %.not.i13, label %19, label %ref_entry_cmp_sslice.exit

19:                                               ; preds = %.lr.ph.i
  %20 = getelementptr inbounds nuw [0 x i8], ptr %17, i64 0, i64 %2
  %21 = load i8, ptr %20, align 1, !tbaa !17
  %22 = zext i8 %21 to i32
  %23 = sub nsw i32 0, %22
  br label %ref_entry_cmp_sslice.exit

ref_entry_cmp_sslice.exit:                        ; preds = %.lr.ph.i, %19
  %.0.i14 = phi i32 [ %23, %19 ], [ %18, %.lr.ph.i ]
  %24 = icmp slt i32 %.0.i14, 0
  br i1 %24, label %28, label %25

25:                                               ; preds = %ref_entry_cmp_sslice.exit
  %.not.i = icmp eq i32 %.0.i14, 0
  br i1 %.not.i, label %bsearch.exit, label %26

26:                                               ; preds = %25
  %27 = add nuw i64 %13, 1
  br label %28

28:                                               ; preds = %26, %ref_entry_cmp_sslice.exit
  %.118.i = phi i64 [ %.01720.i, %26 ], [ %13, %ref_entry_cmp_sslice.exit ]
  %.1.i = phi i64 [ %27, %26 ], [ %.01621.i, %ref_entry_cmp_sslice.exit ]
  %29 = icmp ult i64 %.1.i, %.118.i
  br i1 %29, label %.lr.ph.i, label %bsearch.exit.thread, !llvm.loop !28

bsearch.exit:                                     ; preds = %25
  %30 = trunc i64 %13 to i32
  br label %bsearch.exit.thread

bsearch.exit.thread:                              ; preds = %28, %7, %3, %5, %bsearch.exit
  %.0 = phi i32 [ %30, %bsearch.exit ], [ -1, %5 ], [ -1, %3 ], [ -1, %7 ], [ -1, %28 ]
  ret i32 %.0
}